target datalayout = "e-m:e-p270:32:32-p271:32:32-p272:64:64-i64:64-i128:128-f80:128-n8:16:32:64-S128"
target triple = "x86_64-pc-linux-gnu"

; Function Attrs: inlinehint mustprogress nounwind uwtable
define linkonce_odr noundef nonnull align 8 dereferenceable(8) ptr @_ZSt3minIdERKT_S2_S2_(ptr noundef nonnull align 8 dereferenceable(8) %0, ptr noundef nonnull align 8 dereferenceable(8) %1) #6 comdat {
  %3 = alloca ptr, align 8
  %4 = alloca ptr, align 8
  %5 = alloca ptr, align 8
  store ptr %0, ptr %4, align 8, !tbaa !18
  store ptr %1, ptr %5, align 8, !tbaa !18
  %6 = load ptr, ptr %5, align 8, !tbaa !18
  %7 = load double, ptr %6, align 8, !tbaa !16
  %8 = load ptr, ptr %4, align 8, !tbaa !18
  %9 = load double, ptr %8, align 8, !tbaa !16
  %10 = fcmp olt double %7, %9
  br i1 %10, label %11, label %13

11:                                               ; preds = %2
  %12 = load ptr, ptr %5, align 8, !tbaa !18
  store ptr %12, ptr %3, align 8
  br label %15

13:                                               ; preds = %2
  %14 = load ptr, ptr %4, align 8, !tbaa !18
  store ptr %14, ptr %3, align 8
  br label %15

15:                                               ; preds = %13, %11
  %16 = load ptr, ptr %3, align 8
  ret ptr %16
}

; Function Attrs: mustprogress nounwind uwtable
define internal noundef double @_ZL8safe_expd(double noundef %0) #0 {
  %2 = alloca double, align 8
  %3 = alloca double, align 8
  %4 = alloca double, align 8
  %5 = alloca double, align 8
  %6 = alloca i32, align 4
  store double %0, ptr %3, align 8, !tbaa !16
  call void @llvm.lifetime.start.p0(i64 8, ptr %4) #14
  store double 2.000000e+02, ptr %4, align 8, !tbaa !16
  call void @llvm.lifetime.start.p0(i64 8, ptr %5) #14
  %7 = load double, ptr %4, align 8, !tbaa !16
  %8 = fneg double %7
  store double %8, ptr %5, align 8, !tbaa !16
  %9 = load double, ptr %3, align 8, !tbaa !16
  %10 = load double, ptr %5, align 8, !tbaa !16
  %11 = fcmp ole double %9, %10
  br i1 %11, label %12, label %15

12:                                               ; preds = %1
  %13 = load double, ptr %5, align 8, !tbaa !16
  %14 = call double @exp(double noundef %13) #14, !tbaa !4
  store double %14, ptr %2, align 8
  store i32 1, ptr %6, align 4
  br label %25

15:                                               ; preds = %1
  %16 = load double, ptr %3, align 8, !tbaa !16
  %17 = load double, ptr %4, align 8, !tbaa !16
  %18 = fcmp oge double %16, %17
  br i1 %18, label %19, label %22

19:                                               ; preds = %15
  %20 = load double, ptr %4, align 8, !tbaa !16
  %21 = call double @exp(double noundef %20) #14, !tbaa !4
  store double %21, ptr %2, align 8
  store i32 1, ptr %6, align 4
  br label %25

22:                                               ; preds = %15
  %23 = load double, ptr %3, align 8, !tbaa !16
  %24 = call double @exp(double noundef %23) #14, !tbaa !4
  store double %24, ptr %2, align 8
  store i32 1, ptr %6, align 4
  br label %25

25:                                               ; preds = %22, %19, %12
  call void @llvm.lifetime.end.p0(i64 8, ptr %5) #14
  call void @llvm.lifetime.end.p0(i64 8, ptr %4) #14
  %26 = load double, ptr %2, align 8
  ret double %26
}

; Function Attrs: mustprogress uwtable
define internal noundef double @_ZL14lmc_vac_2_parmdPKd(double noundef %0, ptr noundef %1) #3 {
  %3 = alloca double, align 8
  %4 = alloca ptr, align 8
  %5 = alloca double, align 8
  %6 = alloca double, align 8
  %7 = alloca double, align 8
  %8 = alloca double, align 8
  %9 = alloca double, align 8
  %10 = alloca double, align 8
  %11 = alloca double, align 8
  %12 = alloca double, align 8
  %13 = alloca double, align 8
  %14 = alloca double, align 8
  store double %0, ptr %3, align 8, !tbaa !16
  store ptr %1, ptr %4, align 8, !tbaa !18
  call void @llvm.lifetime.start.p0(i64 8, ptr %5) #14
  call void @llvm.lifetime.start.p0(i64 8, ptr %6) #14
  call void @llvm.lifetime.start.p0(i64 8, ptr %7) #14
  call void @llvm.lifetime.start.p0(i64 8, ptr %8) #14
  call void @llvm.lifetime.start.p0(i64 8, ptr %9) #14
  call void @llvm.lifetime.start.p0(i64 8, ptr %10) #14
  call void @llvm.lifetime.start.p0(i64 8, ptr %11) #14
  call void @llvm.lifetime.start.p0(i64 8, ptr %12) #14
  call void @llvm.lifetime.start.p0(i64 8, ptr %13) #14
  store double 1.000000e+02, ptr %13, align 8, !tbaa !16
  %15 = load double, ptr %3, align 8, !tbaa !16
  %16 = load ptr, ptr %4, align 8, !tbaa !18
  %17 = getelementptr inbounds double, ptr %16, i64 0
  %18 = load double, ptr %17, align 8, !tbaa !16
  %19 = call double @llvm.fabs.f64(double %18)
  %20 = fmul double 2.000000e+00, %19
  %21 = fdiv double %15, %20
  store double %21, ptr %6, align 8, !tbaa !16
  %22 = load ptr, ptr %4, align 8, !tbaa !18
  %23 = getelementptr inbounds double, ptr %22, i64 1
  %24 = load double, ptr %23, align 8, !tbaa !16
  %25 = fsub double 1.000000e+00, %24
  store double %25, ptr %7, align 8, !tbaa !16
  %26 = load double, ptr %6, align 8, !tbaa !16
  %27 = fneg double %26
  %28 = call noundef double @_ZL8safe_expd(double noundef %27)
  store double %28, ptr %10, align 8, !tbaa !16
  %29 = load double, ptr %7, align 8, !tbaa !16
  %30 = fcmp une double %29, 0.000000e+00
  br i1 %30, label %31, label %78

31:                                               ; preds = %2
  %32 = load double, ptr %7, align 8, !tbaa !16
  %33 = call double @llvm.fabs.f64(double %32)
  %34 = call double @sqrt(double noundef %33) #14, !tbaa !4
  store double %34, ptr %8, align 8, !tbaa !16
  call void @llvm.lifetime.start.p0(i64 8, ptr %14) #14
  %35 = load double, ptr %8, align 8, !tbaa !16
  %36 = load double, ptr %6, align 8, !tbaa !16
  %37 = fmul double %35, %36
  store double %37, ptr %14, align 8, !tbaa !16
  %38 = call noundef nonnull align 8 dereferenceable(8) ptr @_ZSt3minIdERKT_S2_S2_(ptr noundef nonnull align 8 dereferenceable(8) %14, ptr noundef nonnull align 8 dereferenceable(8) %13)
  %39 = load double, ptr %38, align 8, !tbaa !16
  store double %39, ptr %9, align 8, !tbaa !16
  call void @llvm.lifetime.end.p0(i64 8, ptr %14) #14
  %40 = load double, ptr %7, align 8, !tbaa !16
  %41 = fcmp ogt double %40, 0.000000e+00
  br i1 %41, label %42, label %63

42:                                               ; preds = %31
  %43 = load double, ptr %10, align 8, !tbaa !16
  %44 = fmul double %43, 5.000000e-01
  %45 = load double, ptr %9, align 8, !tbaa !16
  %46 = call noundef double @_ZL8safe_expd(double noundef %45)
  %47 = load double, ptr %9, align 8, !tbaa !16
  %48 = fneg double %47
  %49 = call noundef double @_ZL8safe_expd(double noundef %48)
  %50 = fadd double %46, %49
  %51 = fmul double %44, %50
  store double %51, ptr %11, align 8, !tbaa !16
  %52 = load double, ptr %10, align 8, !tbaa !16
  %53 = fmul double %52, 5.000000e-01
  %54 = load double, ptr %9, align 8, !tbaa !16
  %55 = call noundef double @_ZL8safe_expd(double noundef %54)
  %56 = load double, ptr %9, align 8, !tbaa !16
  %57 = fneg double %56
  %58 = call noundef double @_ZL8safe_expd(double noundef %57)
  %59 = fsub double %55, %58
  %60 = fmul double %53, %59
  %61 = load double, ptr %8, align 8, !tbaa !16
  %62 = fdiv double %60, %61
  store double %62, ptr %12, align 8, !tbaa !16
  br label %74

63:                                               ; preds = %31
  %64 = load double, ptr %10, align 8, !tbaa !16
  %65 = load double, ptr %9, align 8, !tbaa !16
  %66 = call double @cos(double noundef %65) #14, !tbaa !4
  %67 = fmul double %64, %66
  store double %67, ptr %11, align 8, !tbaa !16
  %68 = load double, ptr %10, align 8, !tbaa !16
  %69 = load double, ptr %9, align 8, !tbaa !16
  %70 = call double @sin(double noundef %69) #14, !tbaa !4
  %71 = fmul double %68, %70
  %72 = load double, ptr %8, align 8, !tbaa !16
  %73 = fdiv double %71, %72
  store double %73, ptr %12, align 8, !tbaa !16
  br label %74

74:                                               ; preds = %63, %42
  %75 = load double, ptr %11, align 8, !tbaa !16
  %76 = load double, ptr %12, align 8, !tbaa !16
  %77 = fadd double %75, %76
  store double %77, ptr %5, align 8, !tbaa !16
  br label %83

78:                                               ; preds = %2
  %79 = load double, ptr %6, align 8, !tbaa !16
  %80 = fadd double 1.000000e+00, %79
  %81 = load double, ptr %10, align 8, !tbaa !16
  %82 = fmul double %80, %81
  store double %82, ptr %5, align 8, !tbaa !16
  br label %83

83:                                               ; preds = %78, %74
  %84 = load double, ptr %5, align 8, !tbaa !16
  call void @llvm.lifetime.end.p0(i64 8, ptr %13) #14
  call void @llvm.lifetime.end.p0(i64 8, ptr %12) #14
  call void @llvm.lifetime.end.p0(i64 8, ptr %11) #14
  call void @llvm.lifetime.end.p0(i64 8, ptr %10) #14
  call void @llvm.lifetime.end.p0(i64 8, ptr %9) #14
  call void @llvm.lifetime.end.p0(i64 8, ptr %8) #14
  call void @llvm.lifetime.end.p0(i64 8, ptr %7) #14
  call void @llvm.lifetime.end.p0(i64 8, ptr %6) #14
  call void @llvm.lifetime.end.p0(i64 8, ptr %5) #14
  ret double %84
}