; Function Attrs: mustprogress nofree nounwind willreturn memory(write, argmem: readwrite) uwtable
define internal noundef double @_ZL14lmc_vac_2_parmdPKd(double noundef %0, ptr noundef readonly captures(none) %1) #4 {
  %3 = load double, ptr %1, align 8, !tbaa !13
  %4 = tail call double @llvm.fabs.f64(double %3)
  %5 = fmul double %4, 2.000000e+00
  %6 = fdiv double %0, %5
  %7 = getelementptr inbounds nuw i8, ptr %1, i64 8
  %8 = load double, ptr %7, align 8, !tbaa !13
  %9 = fsub double 1.000000e+00, %8
  %10 = fneg double %6
  %11 = fcmp ult double %6, 2.000000e+02
  br i1 %11, label %12, label %_ZL8safe_expd.exit

12:                                               ; preds = %2
  %13 = fcmp ugt double %6, -2.000000e+02
  br i1 %13, label %14, label %_ZL8safe_expd.exit

14:                                               ; preds = %12
  %15 = tail call double @exp(double noundef %10) #18, !tbaa !4
  br label %_ZL8safe_expd.exit

_ZL8safe_expd.exit:                               ; preds = %2, %12, %14
  %.0.i = phi double [ %15, %14 ], [ 0x2DE6061812054CFA, %2 ], [ 0x51F73F60EA79F5B9, %12 ]
  %16 = fcmp une double %9, 0.000000e+00
  br i1 %16, label %17, label %47

17:                                               ; preds = %_ZL8safe_expd.exit
  %18 = tail call double @llvm.fabs.f64(double %9)
  %sqrt = tail call double @llvm.sqrt.f64(double %18)
  %19 = fmul double %6, %sqrt
  %20 = fcmp ogt double %19, 1.000000e+02
  %.sroa.speculated = select i1 %20, double 1.000000e+02, double %19
  %21 = fcmp ogt double %9, 0.000000e+00
  br i1 %21, label %22, label %40

22:                                               ; preds = %17
  %23 = fmul double %.0.i, 5.000000e-01
  %24 = fcmp ugt double %.sroa.speculated, -2.000000e+02
  %25 = fcmp ult double %.sroa.speculated, 2.000000e+02
  br i1 %24, label %26, label %_ZL8safe_expd.exit30.thread

26:                                               ; preds = %22
  br i1 %25, label %27, label %_ZL8safe_expd.exit30

27:                                               ; preds = %26
  %28 = tail call double @exp(double noundef %.sroa.speculated) #18, !tbaa !4
  br label %_ZL8safe_expd.exit30

_ZL8safe_expd.exit30:                             ; preds = %26, %27
  %.0.i29 = phi double [ %28, %27 ], [ 0x51F73F60EA79F5B9, %26 ]
  %29 = fcmp ult double %.sroa.speculated, 2.000000e+02
  br i1 %29, label %31, label %_ZL8safe_expd.exit32

_ZL8safe_expd.exit30.thread:                      ; preds = %22
  %. = select i1 %25, double 0x51F73F60EA79F5B9, double 0x2DF6061812054CFA
  %.66 = select i1 %25, double 0x51F73F60EA79F5B9, double 0x2DE6061812054CFA
  br label %_ZL8safe_expd.exit36

_ZL8safe_expd.exit32:                             ; preds = %_ZL8safe_expd.exit30
  %30 = fadd double %.0.i29, 0x2DE6061812054CFA
  br label %_ZL8safe_expd.exit36

31:                                               ; preds = %_ZL8safe_expd.exit30
  %32 = fneg double %.sroa.speculated
  %33 = tail call double @exp(double noundef %32) #18, !tbaa !4
  %34 = fadd double %.0.i29, %33
  %35 = tail call double @exp(double noundef %.sroa.speculated) #18, !tbaa !4
  %36 = tail call double @exp(double noundef %32) #18, !tbaa !4
  br label %_ZL8safe_expd.exit36

_ZL8safe_expd.exit36:                             ; preds = %_ZL8safe_expd.exit30.thread, %_ZL8safe_expd.exit32, %31
  %.0.i3352 = phi double [ %35, %31 ], [ 0x51F73F60EA79F5B9, %_ZL8safe_expd.exit32 ], [ 0x2DE6061812054CFA, %_ZL8safe_expd.exit30.thread ]
  %.pn65 = phi double [ %34, %31 ], [ %30, %_ZL8safe_expd.exit32 ], [ %., %_ZL8safe_expd.exit30.thread ]
  %.0.i35 = phi double [ %36, %31 ], [ 0x2DE6061812054CFA, %_ZL8safe_expd.exit32 ], [ %.66, %_ZL8safe_expd.exit30.thread ]
  %37 = fmul double %23, %.pn65
  %38 = fsub double %.0.i3352, %.0.i35
  %39 = fmul double %23, %38
  br label %45

40:                                               ; preds = %17
  %41 = tail call double @cos(double noundef %.sroa.speculated) #18, !tbaa !4
  %42 = fmul double %.0.i, %41
  %43 = tail call double @sin(double noundef %.sroa.speculated) #18, !tbaa !4
  %44 = fmul double %.0.i, %43
  br label %45

45:                                               ; preds = %40, %_ZL8safe_expd.exit36
  %.026 = phi double [ %37, %_ZL8safe_expd.exit36 ], [ %42, %40 ]
  %.pn = phi double [ %39, %_ZL8safe_expd.exit36 ], [ %44, %40 ]
  %.0 = fdiv double %.pn, %sqrt
  %46 = fadd double %.026, %.0
  br label %50

47:                                               ; preds = %_ZL8safe_expd.exit
  %48 = fadd double %6, 1.000000e+00
  %49 = fmul double %48, %.0.i
  br label %50

50:                                               ; preds = %47, %45
  %.027 = phi double [ %46, %45 ], [ %49, %47 ]
  ret double %.027
}